; Function Attrs: mustprogress uwtable
define dso_local void @_ZN24cmComputeLinkInformation18SetCurrentLinkTypeENS_8LinkTypeE(ptr noundef nonnull align 8 dereferenceable(2960) %0, i32 noundef %1) local_unnamed_addr #3 align 2 {
  %3 = alloca i32, align 4
  %4 = alloca i32, align 4
  %5 = getelementptr inbounds i8, ptr %0, i64 608
  %6 = load i32, ptr %5, align 8
  %.not = icmp eq i32 %6, %1
  br i1 %.not, label %_ZNSt6vectorIN24cmComputeLinkInformation4ItemESaIS1_EE12emplace_backIJRNSt7__cxx1112basic_stringIcSt11char_traitsIcESaIcEEENS0_10ItemIsPathEEEERS1_DpOT_.exit, label %7

7:                                                ; preds = %2
  store i32 %1, ptr %5, align 8
  %8 = getelementptr inbounds i8, ptr %0, i64 2854
  %9 = load i8, ptr %8, align 2
  %10 = and i8 %9, 1
  %.not2 = icmp eq i8 %10, 0
  br i1 %.not2, label %_ZNSt6vectorIN24cmComputeLinkInformation4ItemESaIS1_EE12emplace_backIJRNSt7__cxx1112basic_stringIcSt11char_traitsIcESaIcEEENS0_10ItemIsPathEEEERS1_DpOT_.exit, label %11

11:                                               ; preds = %7
  switch i32 %1, label %_ZNSt6vectorIN24cmComputeLinkInformation4ItemESaIS1_EE12emplace_backIJRNSt7__cxx1112basic_stringIcSt11char_traitsIcESaIcEEENS0_10ItemIsPathEEEERS1_DpOT_.exit [
    i32 1, label %12
    i32 2, label %22
  ]

12:                                               ; preds = %11
  %13 = getelementptr inbounds i8, ptr %0, i64 616
  store i32 0, ptr %3, align 4
  %14 = getelementptr inbounds i8, ptr %0, i64 8
  %15 = load ptr, ptr %14, align 8
  %16 = getelementptr inbounds i8, ptr %0, i64 16
  %17 = load ptr, ptr %16, align 8
  %.not.i = icmp eq ptr %15, %17
  br i1 %.not.i, label %21, label %18

18:                                               ; preds = %12
  call void @_ZNSt15__new_allocatorIN24cmComputeLinkInformation4ItemEE9constructIS1_JRNSt7__cxx1112basic_stringIcSt11char_traitsIcESaIcEEENS0_10ItemIsPathEEEEvPT_DpOT0_(ptr noundef nonnull align 1 dereferenceable(1) %0, ptr noundef %15, ptr noundef nonnull align 8 dereferenceable(32) %13, ptr noundef nonnull align 4 dereferenceable(4) %3)
  %19 = load ptr, ptr %14, align 8
  %20 = getelementptr inbounds i8, ptr %19, i64 80
  store ptr %20, ptr %14, align 8
  br label %_ZNSt6vectorIN24cmComputeLinkInformation4ItemESaIS1_EE12emplace_backIJRNSt7__cxx1112basic_stringIcSt11char_traitsIcESaIcEEENS0_10ItemIsPathEEEERS1_DpOT_.exit

21:                                               ; preds = %12
  call void @_ZNSt6vectorIN24cmComputeLinkInformation4ItemESaIS1_EE17_M_realloc_insertIJRNSt7__cxx1112basic_stringIcSt11char_traitsIcESaIcEEENS0_10ItemIsPathEEEEvN9__gnu_cxx17__normal_iteratorIPS1_S3_EEDpOT_(ptr noundef nonnull align 8 dereferenceable(24) %0, ptr %15, ptr noundef nonnull align 8 dereferenceable(32) %13, ptr noundef nonnull align 4 dereferenceable(4) %3)
  br label %_ZNSt6vectorIN24cmComputeLinkInformation4ItemESaIS1_EE12emplace_backIJRNSt7__cxx1112basic_stringIcSt11char_traitsIcESaIcEEENS0_10ItemIsPathEEEERS1_DpOT_.exit

22:                                               ; preds = %11
  %23 = getelementptr inbounds i8, ptr %0, i64 648
  store i32 0, ptr %4, align 4
  %24 = getelementptr inbounds i8, ptr %0, i64 8
  %25 = load ptr, ptr %24, align 8
  %26 = getelementptr inbounds i8, ptr %0, i64 16
  %27 = load ptr, ptr %26, align 8
  %.not.i3 = icmp eq ptr %25, %27
  br i1 %.not.i3, label %31, label %28

28:                                               ; preds = %22
  call void @_ZNSt15__new_allocatorIN24cmComputeLinkInformation4ItemEE9constructIS1_JRNSt7__cxx1112basic_stringIcSt11char_traitsIcESaIcEEENS0_10ItemIsPathEEEEvPT_DpOT0_(ptr noundef nonnull align 1 dereferenceable(1) %0, ptr noundef %25, ptr noundef nonnull align 8 dereferenceable(32) %23, ptr noundef nonnull align 4 dereferenceable(4) %4)
  %29 = load ptr, ptr %24, align 8
  %30 = getelementptr inbounds i8, ptr %29, i64 80
  store ptr %30, ptr %24, align 8
  br label %_ZNSt6vectorIN24cmComputeLinkInformation4ItemESaIS1_EE12emplace_backIJRNSt7__cxx1112basic_stringIcSt11char_traitsIcESaIcEEENS0_10ItemIsPathEEEERS1_DpOT_.exit

31:                                               ; preds = %22
  call void @_ZNSt6vectorIN24cmComputeLinkInformation4ItemESaIS1_EE17_M_realloc_insertIJRNSt7__cxx1112basic_stringIcSt11char_traitsIcESaIcEEENS0_10ItemIsPathEEEEvN9__gnu_cxx17__normal_iteratorIPS1_S3_EEDpOT_(ptr noundef nonnull align 8 dereferenceable(24) %0, ptr %25, ptr noundef nonnull align 8 dereferenceable(32) %23, ptr noundef nonnull align 4 dereferenceable(4) %4)
  br label %_ZNSt6vectorIN24cmComputeLinkInformation4ItemESaIS1_EE12emplace_backIJRNSt7__cxx1112basic_stringIcSt11char_traitsIcESaIcEEENS0_10ItemIsPathEEEERS1_DpOT_.exit

_ZNSt6vectorIN24cmComputeLinkInformation4ItemESaIS1_EE12emplace_backIJRNSt7__cxx1112basic_stringIcSt11char_traitsIcESaIcEEENS0_10ItemIsPathEEEERS1_DpOT_.exit: ; preds = %31, %28, %21, %18, %7, %11, %2
  ret void
}